target datalayout = "e-m:e-p270:32:32-p271:32:32-p272:64:64-i64:64-i128:128-f80:128-n8:16:32:64-S128"
target triple = "x86_64-pc-linux-gnu"

%struct.png_info_def = type { i32, i32, i32, i64, ptr, i16, i16, i8, i8, i8, i8, i8, i8, i8, i8, [8 x i8], %struct.png_colorspace, ptr, ptr, i32, i32, i32, ptr, %struct.png_time_struct, %struct.png_color_8_struct, ptr, %struct.png_color_16_struct, %struct.png_color_16_struct, i32, i32, i8, i32, i32, i8, i32, ptr, ptr, ptr, ptr, i32, i32, ptr, ptr, i8, i8, i32, ptr, i32, ptr, i32, i8, ptr, ptr, ptr }
%struct.png_colorspace = type { i32, %struct.png_xy, %struct.png_XYZ, i16, i16 }
%struct.png_xy = type { i32, i32, i32, i32, i32, i32, i32, i32 }
%struct.png_XYZ = type { i32, i32, i32, i32, i32, i32, i32, i32, i32 }
%struct.png_time_struct = type { i16, i8, i8, i8, i8, i8 }
%struct.png_color_8_struct = type { i8, i8, i8, i8, i8 }
%struct.png_color_16_struct = type { i8, i16, i16, i16, i16 }
%struct.png_sPLT_struct = type { ptr, i8, ptr, i32 }

@.str.40 = private unnamed_addr constant [21 x i8] c"too many sPLT chunks\00", align 1
@.str.41 = private unnamed_addr constant [27 x i8] c"png_set_sPLT: invalid sPLT\00", align 1
@.str.42 = private unnamed_addr constant [19 x i8] c"sPLT out of memory\00", align 1

; Function Attrs: nounwind uwtable
define void @png_set_sPLT(ptr noalias noundef %0, ptr noalias noundef %1, ptr noundef %2, i32 noundef %3) #0 {
  %5 = alloca ptr, align 8
  %6 = alloca ptr, align 8
  %7 = alloca ptr, align 8
  %8 = alloca i32, align 4
  %9 = alloca ptr, align 8
  %10 = alloca i64, align 8
  store ptr %0, ptr %5, align 8
  store ptr %1, ptr %6, align 8
  store ptr %2, ptr %7, align 8
  store i32 %3, ptr %8, align 4
  %11 = load ptr, ptr %5, align 8
  %12 = icmp eq ptr %11, null
  br i1 %12, label %22, label %13

13:                                               ; preds = %4
  %14 = load ptr, ptr %6, align 8
  %15 = icmp eq ptr %14, null
  br i1 %15, label %22, label %16

16:                                               ; preds = %13
  %17 = load i32, ptr %8, align 4
  %18 = icmp sle i32 %17, 0
  br i1 %18, label %22, label %19

19:                                               ; preds = %16
  %20 = load ptr, ptr %7, align 8
  %21 = icmp eq ptr %20, null
  br i1 %21, label %22, label %23

22:                                               ; preds = %19, %16, %13, %4
  br label %152

23:                                               ; preds = %19
  %24 = load ptr, ptr %5, align 8
  %25 = load ptr, ptr %6, align 8
  %26 = getelementptr inbounds %struct.png_info_def, ptr %25, i32 0, i32 48
  %27 = load ptr, ptr %26, align 8
  %28 = load ptr, ptr %6, align 8
  %29 = getelementptr inbounds %struct.png_info_def, ptr %28, i32 0, i32 49
  %30 = load i32, ptr %29, align 8
  %31 = load i32, ptr %8, align 4
  %32 = call noalias ptr @png_realloc_array(ptr noundef %24, ptr noundef %27, i32 noundef %30, i32 noundef %31, i64 noundef 32)
  store ptr %32, ptr %9, align 8
  %33 = load ptr, ptr %9, align 8
  %34 = icmp eq ptr %33, null
  br i1 %34, label %35, label %37

35:                                               ; preds = %23
  %36 = load ptr, ptr %5, align 8
  call void @png_chunk_report(ptr noundef %36, ptr noundef @.str.40, i32 noundef 1)
  br label %152

37:                                               ; preds = %23
  %38 = load ptr, ptr %5, align 8
  %39 = load ptr, ptr %6, align 8
  %40 = getelementptr inbounds %struct.png_info_def, ptr %39, i32 0, i32 48
  %41 = load ptr, ptr %40, align 8
  call void @png_free(ptr noundef %38, ptr noundef %41)
  %42 = load ptr, ptr %9, align 8
  %43 = load ptr, ptr %6, align 8
  %44 = getelementptr inbounds %struct.png_info_def, ptr %43, i32 0, i32 48
  store ptr %42, ptr %44, align 8
  %45 = load ptr, ptr %6, align 8
  %46 = getelementptr inbounds %struct.png_info_def, ptr %45, i32 0, i32 45
  %47 = load i32, ptr %46, align 4
  %48 = or i32 %47, 32
  store i32 %48, ptr %46, align 4
  %49 = load ptr, ptr %6, align 8
  %50 = getelementptr inbounds %struct.png_info_def, ptr %49, i32 0, i32 49
  %51 = load i32, ptr %50, align 8
  %52 = load ptr, ptr %9, align 8
  %53 = sext i32 %51 to i64
  %54 = getelementptr inbounds %struct.png_sPLT_struct, ptr %52, i64 %53
  store ptr %54, ptr %9, align 8
  br label %55

55:                                               ; preds = %143, %37
  %56 = load ptr, ptr %7, align 8
  %57 = getelementptr inbounds %struct.png_sPLT_struct, ptr %56, i32 0, i32 0
  %58 = load ptr, ptr %57, align 8
  %59 = icmp eq ptr %58, null
  br i1 %59, label %65, label %60

60:                                               ; preds = %55
  %61 = load ptr, ptr %7, align 8
  %62 = getelementptr inbounds %struct.png_sPLT_struct, ptr %61, i32 0, i32 2
  %63 = load ptr, ptr %62, align 8
  %64 = icmp eq ptr %63, null
  br i1 %64, label %65, label %67

65:                                               ; preds = %60, %55
  %66 = load ptr, ptr %5, align 8
  call void @png_app_error(ptr noundef %66, ptr noundef @.str.41)
  br label %143

67:                                               ; preds = %60
  %68 = load ptr, ptr %7, align 8
  %69 = getelementptr inbounds %struct.png_sPLT_struct, ptr %68, i32 0, i32 1
  %70 = load i8, ptr %69, align 8
  %71 = load ptr, ptr %9, align 8
  %72 = getelementptr inbounds %struct.png_sPLT_struct, ptr %71, i32 0, i32 1
  store i8 %70, ptr %72, align 8
  %73 = load ptr, ptr %7, align 8
  %74 = getelementptr inbounds %struct.png_sPLT_struct, ptr %73, i32 0, i32 0
  %75 = load ptr, ptr %74, align 8
  %76 = call i64 @strlen(ptr noundef %75) #6
  %77 = add i64 %76, 1
  store i64 %77, ptr %10, align 8
  %78 = load ptr, ptr %5, align 8
  %79 = load i64, ptr %10, align 8
  %80 = call noalias ptr @png_malloc_base(ptr noundef %78, i64 noundef %79)
  %81 = load ptr, ptr %9, align 8
  %82 = getelementptr inbounds %struct.png_sPLT_struct, ptr %81, i32 0, i32 0
  store ptr %80, ptr %82, align 8
  %83 = load ptr, ptr %9, align 8
  %84 = getelementptr inbounds %struct.png_sPLT_struct, ptr %83, i32 0, i32 0
  %85 = load ptr, ptr %84, align 8
  %86 = icmp eq ptr %85, null
  br i1 %86, label %87, label %88

87:                                               ; preds = %67
  br label %147

88:                                               ; preds = %67
  %89 = load ptr, ptr %9, align 8
  %90 = getelementptr inbounds %struct.png_sPLT_struct, ptr %89, i32 0, i32 0
  %91 = load ptr, ptr %90, align 8
  %92 = load ptr, ptr %7, align 8
  %93 = getelementptr inbounds %struct.png_sPLT_struct, ptr %92, i32 0, i32 0
  %94 = load ptr, ptr %93, align 8
  %95 = load i64, ptr %10, align 8
  call void @llvm.memcpy.p0.p0.i64(ptr align 1 %91, ptr align 1 %94, i64 %95, i1 false)
  %96 = load ptr, ptr %5, align 8
  %97 = load ptr, ptr %7, align 8
  %98 = getelementptr inbounds %struct.png_sPLT_struct, ptr %97, i32 0, i32 3
  %99 = load i32, ptr %98, align 8
  %100 = call noalias ptr @png_malloc_array(ptr noundef %96, i32 noundef %99, i64 noundef 10)
  %101 = load ptr, ptr %9, align 8
  %102 = getelementptr inbounds %struct.png_sPLT_struct, ptr %101, i32 0, i32 2
  store ptr %100, ptr %102, align 8
  %103 = load ptr, ptr %9, align 8
  %104 = getelementptr inbounds %struct.png_sPLT_struct, ptr %103, i32 0, i32 2
  %105 = load ptr, ptr %104, align 8
  %106 = icmp eq ptr %105, null
  br i1 %106, label %107, label %114

107:                                              ; preds = %88
  %108 = load ptr, ptr %5, align 8
  %109 = load ptr, ptr %9, align 8
  %110 = getelementptr inbounds %struct.png_sPLT_struct, ptr %109, i32 0, i32 0
  %111 = load ptr, ptr %110, align 8
  call void @png_free(ptr noundef %108, ptr noundef %111)
  %112 = load ptr, ptr %9, align 8
  %113 = getelementptr inbounds %struct.png_sPLT_struct, ptr %112, i32 0, i32 0
  store ptr null, ptr %113, align 8
  br label %147

114:                                              ; preds = %88
  %115 = load ptr, ptr %7, align 8
  %116 = getelementptr inbounds %struct.png_sPLT_struct, ptr %115, i32 0, i32 3
  %117 = load i32, ptr %116, align 8
  %118 = load ptr, ptr %9, align 8
  %119 = getelementptr inbounds %struct.png_sPLT_struct, ptr %118, i32 0, i32 3
  store i32 %117, ptr %119, align 8
  %120 = load ptr, ptr %9, align 8
  %121 = getelementptr inbounds %struct.png_sPLT_struct, ptr %120, i32 0, i32 2
  %122 = load ptr, ptr %121, align 8
  %123 = load ptr, ptr %7, align 8
  %124 = getelementptr inbounds %struct.png_sPLT_struct, ptr %123, i32 0, i32 2
  %125 = load ptr, ptr %124, align 8
  %126 = load ptr, ptr %7, align 8
  %127 = getelementptr inbounds %struct.png_sPLT_struct, ptr %126, i32 0, i32 3
  %128 = load i32, ptr %127, align 8
  %129 = zext i32 %128 to i64
  %130 = mul i64 %129, 10
  call void @llvm.memcpy.p0.p0.i64(ptr align 2 %122, ptr align 2 %125, i64 %130, i1 false)
  %131 = load ptr, ptr %6, align 8
  %132 = getelementptr inbounds %struct.png_info_def, ptr %131, i32 0, i32 2
  %133 = load i32, ptr %132, align 8
  %134 = or i32 %133, 8192
  store i32 %134, ptr %132, align 8
  %135 = load ptr, ptr %6, align 8
  %136 = getelementptr inbounds %struct.png_info_def, ptr %135, i32 0, i32 49
  %137 = load i32, ptr %136, align 8
  %138 = add nsw i32 %137, 1
  store i32 %138, ptr %136, align 8
  %139 = load ptr, ptr %9, align 8
  %140 = getelementptr inbounds %struct.png_sPLT_struct, ptr %139, i32 1
  store ptr %140, ptr %9, align 8
  %141 = load ptr, ptr %7, align 8
  %142 = getelementptr inbounds %struct.png_sPLT_struct, ptr %141, i32 1
  store ptr %142, ptr %7, align 8
  br label %143

143:                                              ; preds = %114, %65
  %144 = load i32, ptr %8, align 4
  %145 = add nsw i32 %144, -1
  store i32 %145, ptr %8, align 4
  %146 = icmp ne i32 %145, 0
  br i1 %146, label %55, label %147, !llvm.loop !9

147:                                              ; preds = %143, %107, %87
  %148 = load i32, ptr %8, align 4
  %149 = icmp sgt i32 %148, 0
  br i1 %149, label %150, label %152

150:                                              ; preds = %147
  %151 = load ptr, ptr %5, align 8
  call void @png_chunk_report(ptr noundef %151, ptr noundef @.str.42, i32 noundef 1)
  br label %152

152:                                              ; preds = %150, %147, %35, %22
  ret void
}