; Function Attrs: nounwind uwtable
define void @png_set_sPLT(ptr noalias noundef %0, ptr noalias noundef %1, ptr noundef readonly %2, i32 noundef %3) local_unnamed_addr #2 {
  %5 = icmp eq ptr %0, null
  %6 = icmp eq ptr %1, null
  %or.cond = or i1 %5, %6
  %7 = icmp slt i32 %3, 1
  %or.cond3 = or i1 %or.cond, %7
  %8 = icmp eq ptr %2, null
  %or.cond5 = or i1 %8, %or.cond3
  br i1 %or.cond5, label %.thread, label %9

9:                                                ; preds = %4
  %10 = getelementptr inbounds i8, ptr %1, i64 320
  %11 = load ptr, ptr %10, align 8
  %12 = getelementptr inbounds i8, ptr %1, i64 328
  %13 = load i32, ptr %12, align 8
  %14 = tail call noalias ptr @png_realloc_array(ptr noundef nonnull %0, ptr noundef %11, i32 noundef %13, i32 noundef %3, i64 noundef 32) #12
  %15 = icmp eq ptr %14, null
  br i1 %15, label %16, label %17

16:                                               ; preds = %9
  tail call void @png_chunk_report(ptr noundef nonnull %0, ptr noundef nonnull @.str.40, i32 noundef 1) #12
  br label %.thread

17:                                               ; preds = %9
  %18 = load ptr, ptr %10, align 8
  tail call void @png_free(ptr noundef nonnull %0, ptr noundef %18) #12
  store ptr %14, ptr %10, align 8
  %19 = getelementptr inbounds i8, ptr %1, i64 300
  %20 = load i32, ptr %19, align 4
  %21 = or i32 %20, 32
  store i32 %21, ptr %19, align 4
  %22 = load i32, ptr %12, align 8
  %23 = sext i32 %22 to i64
  %24 = getelementptr inbounds %struct.png_sPLT_struct, ptr %14, i64 %23
  %25 = getelementptr inbounds i8, ptr %1, i64 8
  br label %26

26:                                               ; preds = %63, %17
  %.055 = phi i32 [ %3, %17 ], [ %64, %63 ]
  %.053 = phi ptr [ %24, %17 ], [ %.154, %63 ]
  %.0 = phi ptr [ %2, %17 ], [ %.1, %63 ]
  %27 = load ptr, ptr %.0, align 8
  %28 = icmp eq ptr %27, null
  br i1 %28, label %33, label %29

29:                                               ; preds = %26
  %30 = getelementptr inbounds i8, ptr %.0, i64 16
  %31 = load ptr, ptr %30, align 8
  %32 = icmp eq ptr %31, null
  br i1 %32, label %33, label %34

33:                                               ; preds = %29, %26
  tail call void @png_app_error(ptr noundef %0, ptr noundef nonnull @.str.41) #12
  br label %63

34:                                               ; preds = %29
  %35 = getelementptr inbounds i8, ptr %.0, i64 8
  %36 = load i8, ptr %35, align 8
  %37 = getelementptr inbounds i8, ptr %.053, i64 8
  store i8 %36, ptr %37, align 8
  %38 = tail call i64 @strlen(ptr noundef nonnull dereferenceable(1) %27) #13
  %39 = add i64 %38, 1
  %40 = tail call noalias ptr @png_malloc_base(ptr noundef %0, i64 noundef %39) #12
  store ptr %40, ptr %.053, align 8
  %41 = icmp eq ptr %40, null
  br i1 %41, label %.loopexit, label %42

42:                                               ; preds = %34
  %43 = load ptr, ptr %.0, align 8
  tail call void @llvm.memcpy.p0.p0.i64(ptr nonnull align 1 %40, ptr align 1 %43, i64 %39, i1 false)
  %44 = getelementptr inbounds i8, ptr %.0, i64 24
  %45 = load i32, ptr %44, align 8
  %46 = tail call noalias ptr @png_malloc_array(ptr noundef %0, i32 noundef %45, i64 noundef 10) #12
  %47 = getelementptr inbounds i8, ptr %.053, i64 16
  store ptr %46, ptr %47, align 8
  %48 = icmp eq ptr %46, null
  br i1 %48, label %49, label %51

49:                                               ; preds = %42
  %50 = load ptr, ptr %.053, align 8
  tail call void @png_free(ptr noundef %0, ptr noundef %50) #12
  store ptr null, ptr %.053, align 8
  br label %.loopexit

51:                                               ; preds = %42
  %52 = load i32, ptr %44, align 8
  %53 = getelementptr inbounds i8, ptr %.053, i64 24
  store i32 %52, ptr %53, align 8
  %54 = load ptr, ptr %30, align 8
  %55 = zext i32 %52 to i64
  %56 = mul nuw nsw i64 %55, 10
  tail call void @llvm.memcpy.p0.p0.i64(ptr nonnull align 2 %46, ptr align 2 %54, i64 %56, i1 false)
  %57 = load i32, ptr %25, align 8
  %58 = or i32 %57, 8192
  store i32 %58, ptr %25, align 8
  %59 = load i32, ptr %12, align 8
  %60 = add nsw i32 %59, 1
  store i32 %60, ptr %12, align 8
  %61 = getelementptr inbounds i8, ptr %.053, i64 32
  %62 = getelementptr inbounds i8, ptr %.0, i64 32
  br label %63

63:                                               ; preds = %51, %33
  %.154 = phi ptr [ %.053, %33 ], [ %61, %51 ]
  %.1 = phi ptr [ %.0, %33 ], [ %62, %51 ]
  %64 = add nsw i32 %.055, -1
  %.not = icmp eq i32 %64, 0
  br i1 %.not, label %.thread, label %26, !llvm.loop !21

.loopexit:                                        ; preds = %34, %49
  %65 = icmp sgt i32 %.055, 0
  br i1 %65, label %66, label %.thread

66:                                               ; preds = %.loopexit
  tail call void @png_chunk_report(ptr noundef %0, ptr noundef nonnull @.str.42, i32 noundef 1) #12
  br label %.thread

.thread:                                          ; preds = %63, %4, %66, %.loopexit, %16
  ret void
}